target datalayout = "e-m:e-p270:32:32-p271:32:32-p272:64:64-i64:64-i128:128-f80:128-n8:16:32:64-S128"
target triple = "x86_64-pc-linux-gnu"

; Function Attrs: nounwind uwtable
define internal void @SDL_Convert61To71(ptr noundef %0, ptr noundef %1, i32 noundef %2) #0 {
  %4 = alloca ptr, align 8
  %5 = alloca ptr, align 8
  %6 = alloca i32, align 4
  %7 = alloca i32, align 4
  %8 = alloca float, align 4
  store ptr %0, ptr %4, align 8
  store ptr %1, ptr %5, align 8
  store i32 %2, ptr %6, align 4
  call void @llvm.lifetime.start.p0(i64 4, ptr %7) #7
  %9 = load i32, ptr %6, align 4
  %10 = sub nsw i32 %9, 1
  %11 = mul nsw i32 %10, 7
  %12 = load ptr, ptr %5, align 8
  %13 = sext i32 %11 to i64
  %14 = getelementptr inbounds float, ptr %12, i64 %13
  store ptr %14, ptr %5, align 8
  %15 = load i32, ptr %6, align 4
  %16 = sub nsw i32 %15, 1
  %17 = mul nsw i32 %16, 8
  %18 = load ptr, ptr %4, align 8
  %19 = sext i32 %17 to i64
  %20 = getelementptr inbounds float, ptr %18, i64 %19
  store ptr %20, ptr %4, align 8
  %21 = load i32, ptr %6, align 4
  store i32 %21, ptr %7, align 4
  br label %22

22:                                               ; preds = %67, %3
  %23 = load i32, ptr %7, align 4
  %24 = icmp ne i32 %23, 0
  br i1 %24, label %25, label %74

25:                                               ; preds = %22
  call void @llvm.lifetime.start.p0(i64 4, ptr %8) #7
  %26 = load ptr, ptr %5, align 8
  %27 = getelementptr inbounds float, ptr %26, i64 4
  %28 = load float, ptr %27, align 4
  store float %28, ptr %8, align 4
  %29 = load ptr, ptr %5, align 8
  %30 = getelementptr inbounds float, ptr %29, i64 6
  %31 = load float, ptr %30, align 4
  %32 = load ptr, ptr %4, align 8
  %33 = getelementptr inbounds float, ptr %32, i64 7
  store float %31, ptr %33, align 4
  %34 = load ptr, ptr %5, align 8
  %35 = getelementptr inbounds float, ptr %34, i64 5
  %36 = load float, ptr %35, align 4
  %37 = load ptr, ptr %4, align 8
  %38 = getelementptr inbounds float, ptr %37, i64 6
  store float %36, ptr %38, align 4
  %39 = load float, ptr %8, align 4
  %40 = fmul float %39, 0x3FE69FBE80000000
  %41 = load ptr, ptr %4, align 8
  %42 = getelementptr inbounds float, ptr %41, i64 5
  store float %40, ptr %42, align 4
  %43 = load float, ptr %8, align 4
  %44 = fmul float %43, 0x3FE69FBE80000000
  %45 = load ptr, ptr %4, align 8
  %46 = getelementptr inbounds float, ptr %45, i64 4
  store float %44, ptr %46, align 4
  %47 = load ptr, ptr %5, align 8
  %48 = getelementptr inbounds float, ptr %47, i64 3
  %49 = load float, ptr %48, align 4
  %50 = load ptr, ptr %4, align 8
  %51 = getelementptr inbounds float, ptr %50, i64 3
  store float %49, ptr %51, align 4
  %52 = load ptr, ptr %5, align 8
  %53 = getelementptr inbounds float, ptr %52, i64 2
  %54 = load float, ptr %53, align 4
  %55 = load ptr, ptr %4, align 8
  %56 = getelementptr inbounds float, ptr %55, i64 2
  store float %54, ptr %56, align 4
  %57 = load ptr, ptr %5, align 8
  %58 = getelementptr inbounds float, ptr %57, i64 1
  %59 = load float, ptr %58, align 4
  %60 = load ptr, ptr %4, align 8
  %61 = getelementptr inbounds float, ptr %60, i64 1
  store float %59, ptr %61, align 4
  %62 = load ptr, ptr %5, align 8
  %63 = getelementptr inbounds float, ptr %62, i64 0
  %64 = load float, ptr %63, align 4
  %65 = load ptr, ptr %4, align 8
  %66 = getelementptr inbounds float, ptr %65, i64 0
  store float %64, ptr %66, align 4
  call void @llvm.lifetime.end.p0(i64 4, ptr %8) #7
  br label %67

67:                                               ; preds = %25
  %68 = load i32, ptr %7, align 4
  %69 = add nsw i32 %68, -1
  store i32 %69, ptr %7, align 4
  %70 = load ptr, ptr %5, align 8
  %71 = getelementptr inbounds float, ptr %70, i64 -7
  store ptr %71, ptr %5, align 8
  %72 = load ptr, ptr %4, align 8
  %73 = getelementptr inbounds float, ptr %72, i64 -8
  store ptr %73, ptr %4, align 8
  br label %22, !llvm.loop !92

74:                                               ; preds = %22
  call void @llvm.lifetime.end.p0(i64 4, ptr %7) #7
  ret void
}