; Function Attrs: nofree norecurse nosync nounwind memory(argmem: readwrite) uwtable
define internal void @SDL_Convert61To71(ptr noundef writeonly captures(none) %0, ptr noundef readonly captures(none) %1, i32 noundef %2) #5 {
  %.not27 = icmp eq i32 %2, 0
  br i1 %.not27, label %._crit_edge, label %.lr.ph.preheader

.lr.ph.preheader:                                 ; preds = %3
  %4 = add nsw i32 %2, -1
  %5 = shl nsw i32 %4, 3
  %6 = sext i32 %5 to i64
  %7 = getelementptr inbounds float, ptr %0, i64 %6
  %8 = mul nsw i32 %4, 7
  %9 = sext i32 %8 to i64
  %10 = getelementptr inbounds float, ptr %1, i64 %9
  br label %.lr.ph

.lr.ph:                                           ; preds = %.lr.ph.preheader, %.lr.ph
  %.030 = phi ptr [ %34, %.lr.ph ], [ %7, %.lr.ph.preheader ]
  %.02529 = phi i32 [ %32, %.lr.ph ], [ %2, %.lr.ph.preheader ]
  %.02628 = phi ptr [ %33, %.lr.ph ], [ %10, %.lr.ph.preheader ]
  %11 = getelementptr inbounds nuw i8, ptr %.02628, i64 16
  %12 = load float, ptr %11, align 4
  %13 = getelementptr inbounds nuw i8, ptr %.02628, i64 24
  %14 = load float, ptr %13, align 4
  %15 = getelementptr inbounds nuw i8, ptr %.030, i64 28
  store float %14, ptr %15, align 4
  %16 = getelementptr inbounds nuw i8, ptr %.02628, i64 20
  %17 = load float, ptr %16, align 4
  %18 = getelementptr inbounds nuw i8, ptr %.030, i64 24
  store float %17, ptr %18, align 4
  %19 = fmul float %12, 0x3FE69FBE80000000
  %20 = getelementptr inbounds nuw i8, ptr %.030, i64 20
  store float %19, ptr %20, align 4
  %21 = getelementptr inbounds nuw i8, ptr %.030, i64 16
  store float %19, ptr %21, align 4
  %22 = getelementptr inbounds nuw i8, ptr %.02628, i64 12
  %23 = load float, ptr %22, align 4
  %24 = getelementptr inbounds nuw i8, ptr %.030, i64 12
  store float %23, ptr %24, align 4
  %25 = getelementptr inbounds nuw i8, ptr %.02628, i64 8
  %26 = load float, ptr %25, align 4
  %27 = getelementptr inbounds nuw i8, ptr %.030, i64 8
  store float %26, ptr %27, align 4
  %28 = getelementptr inbounds nuw i8, ptr %.02628, i64 4
  %29 = load float, ptr %28, align 4
  %30 = getelementptr inbounds nuw i8, ptr %.030, i64 4
  store float %29, ptr %30, align 4
  %31 = load float, ptr %.02628, align 4
  store float %31, ptr %.030, align 4
  %32 = add nsw i32 %.02529, -1
  %33 = getelementptr inbounds i8, ptr %.02628, i64 -28
  %34 = getelementptr inbounds i8, ptr %.030, i64 -32
  %.not = icmp eq i32 %32, 0
  br i1 %.not, label %._crit_edge, label %.lr.ph, !llvm.loop !98

._crit_edge:                                      ; preds = %.lr.ph, %3
  ret void
}